(lp0
(F-6.0
F6.002994011976048
tp1
a(F-5.85
F5.8532934131736525
tp2
a(F-5.7
F5.703592814371257
tp3
a(F-5.55
F5.553892215568862
tp4
a(F-5.4
F5.404191616766466
tp5
a(F-5.25
F5.254491017964073
tp6
a(F-5.1
F5.104790419161677
tp7
a(F-5.1
F5.254491017964073
tp8
a(F-5.25
F5.104790419161677
tp9
a(F-5.4
F5.254491017964073
tp10
a(F-5.55
F5.104790419161677
tp11
a(F-5.7
F4.95508982035928
tp12
a(F-5.7
F4.8053892215568865
tp13
a(F-5.7
F4.655688622754491
tp14
a(F-5.7
F4.505988023952096
tp15
a(F-5.7
F4.3562874251497
tp16
a(F-5.7
F4.206586826347305
tp17
a(F-5.7
F4.056886227544911
tp18
a(F-5.55
F3.907185628742514
tp19
a(F-5.4
F3.7574850299401206
tp20
a(F-5.25
F3.607784431137725
tp21
a(F-5.1
F3.45808383233533
tp22
a(F-4.95
F3.3083832335329326
tp23
a(F-4.8
F3.158682634730539
tp24
a(F-4.65
F3.0089820359281454
tp25
a(F-4.5
F2.8592814371257482
tp26
a(F-4.35
F2.8592814371257482
tp27
a(F-4.2
F2.8592814371257482
tp28
a(F-4.05
F2.8592814371257482
tp29
a(F-3.9
F2.8592814371257482
tp30
a(F-3.75
F2.8592814371257482
tp31
a(F-3.6
F2.8592814371257482
tp32
a(F-3.45
F2.8592814371257482
tp33
a(F-3.3
F2.8592814371257482
tp34
a(F-3.1500000000000004
F3.0089820359281454
tp35
a(F-3.0
F3.0089820359281454
tp36
a(F-2.8499999999999996
F3.0089820359281454
tp37
a(F-2.7
F3.0089820359281454
tp38
a(F-2.55
F3.0089820359281454
tp39
a(F-2.4000000000000004
F3.0089820359281454
tp40
a(F-2.25
F3.0089820359281454
tp41
a(F-2.0999999999999996
F3.0089820359281454
tp42
a(F-1.9500000000000002
F2.8592814371257482
tp43
a(F-1.7999999999999998
F2.709580838323353
tp44
a(F-1.6500000000000004
F2.5598802395209574
tp45
a(F-1.5
F2.709580838323353
tp46
a(F-1.5
F2.8592814371257482
tp47
a(F-1.3499999999999996
F3.0089820359281454
tp48
a(F-1.2000000000000002
F3.0089820359281454
tp49
a(F-1.0499999999999998
F3.0089820359281454
tp50
a(F-0.9000000000000004
F3.0089820359281454
tp51
a(F-0.75
F3.0089820359281454
tp52
a(F-0.5999999999999996
F3.0089820359281454
tp53
a(F-0.4500000000000002
F3.0089820359281454
tp54
a(F-0.2999999999999998
F2.8592814371257482
tp55
a(F-0.15000000000000036
F2.8592814371257482
tp56
a(F0.0
F2.8592814371257482
tp57
a(F0.15000000000000036
F2.8592814371257482
tp58
a(F0.2999999999999998
F2.8592814371257482
tp59
a(F0.4500000000000002
F2.709580838323353
tp60
a(F0.5999999999999996
F2.5598802395209574
tp61
a(F0.75
F2.410179640718564
tp62
a(F0.9000000000000004
F2.2604790419161667
tp63
a(F1.0500000000000007
F2.110778443113773
tp64
a(F1.1999999999999993
F1.9610778443113777
tp65
a(F1.3499999999999996
F1.8113772455089823
tp66
a(F1.5
F1.661676646706585
tp67
a(F1.6500000000000004
F1.5119760479041915
tp68
a(F1.8000000000000007
F1.3622754491017979
tp69
a(F1.9499999999999993
F1.2125748502994007
tp70
a(F2.0999999999999996
F1.0628742514970053
tp71
a(F2.25
F0.9131736526946099
tp72
a(F2.4000000000000004
F0.7634730538922163
tp73
a(F2.4000000000000004
F0.6137724550898209
tp74
a(F2.4000000000000004
F0.46407185628742553
tp75
a(F2.4000000000000004
F0.31437125748503014
tp76
a(F2.4000000000000004
F0.16467065868263386
tp77
a(F2.4000000000000004
F0.01497005988024025
tp78
a(F2.4000000000000004
F-0.13473053892215603
tp79
a(F2.25
F-0.28443113772454964
tp80
a(F2.25
F-0.4341317365269459
tp81
a(F2.25
F-0.5838323353293422
tp82
a(F2.25
F-0.7335329341317358
tp83
a(F2.25
F-0.8832335329341321
tp84
a(F2.25
F-1.0329341317365275
tp85
a(F2.25
F-1.182634730538922
tp86
a(F2.25
F-1.3323353293413174
tp87
a(F2.4000000000000004
F-1.4820359281437119
tp88
a(F2.5500000000000007
F-1.4820359281437119
tp89
a(F2.6999999999999993
F-1.4820359281437119
tp90
a(F2.8499999999999996
F-1.4820359281437119
tp91
a(F3.0
F-1.4820359281437119
tp92
a(F3.1500000000000004
F-1.4820359281437119
tp93
a(F3.3000000000000007
F-1.4820359281437119
tp94
a(F3.4499999999999993
F-1.3323353293413174
tp95
a(F3.5999999999999996
F-1.182634730538922
tp96
a(F3.75
F-1.0329341317365275
tp97
a(F3.9000000000000004
F-0.8832335329341321
tp98
a(F4.050000000000001
F-0.7335329341317358
tp99
a(F4.199999999999999
F-0.5838323353293422
tp100
a(F4.35
F-0.4341317365269459
tp101
a(F4.5
F-0.28443113772454964
tp102
a(F4.65
F-0.13473053892215603
tp103
a(F4.800000000000001
F0.01497005988024025
tp104
a(F4.949999999999999
F0.01497005988024025
tp105
a(F5.1
F0.01497005988024025
tp106
a(F5.25
F0.01497005988024025
tp107
a(F5.4
F0.01497005988024025
tp108
a(F5.550000000000001
F0.01497005988024025
tp109
a(F5.699999999999999
F0.01497005988024025
tp110
a(F5.85
F0.01497005988024025
tp111
a(F6.0
F0.01497005988024025
tp112
a.