(lp0
(F-6.0
F6.002994011976048
tp1
a(F-5.85
F5.8532934131736525
tp2
a(F-5.7
F5.703592814371257
tp3
a(F-5.55
F5.553892215568862
tp4
a(F-5.4
F5.404191616766466
tp5
a(F-5.25
F5.254491017964073
tp6
a(F-5.1
F5.104790419161677
tp7
a(F-5.1
F4.95508982035928
tp8
a(F-5.1
F4.8053892215568865
tp9
a(F-5.1
F4.655688622754491
tp10
a(F-5.1
F4.505988023952096
tp11
a(F-5.1
F4.3562874251497
tp12
a(F-5.1
F4.206586826347305
tp13
a(F-5.1
F4.056886227544911
tp14
a(F-5.1
F3.907185628742514
tp15
a(F-5.1
F3.7574850299401206
tp16
a(F-5.1
F3.607784431137725
tp17
a(F-5.1
F3.45808383233533
tp18
a(F-5.1
F3.3083832335329326
tp19
a(F-5.1
F3.158682634730539
tp20
a(F-5.1
F3.0089820359281454
tp21
a(F-5.1
F2.8592814371257482
tp22
a(F-5.1
F2.709580838323353
tp23
a(F-5.1
F2.5598802395209574
tp24
a(F-5.1
F2.410179640718564
tp25
a(F-5.1
F2.2604790419161667
tp26
a(F-5.1
F2.110778443113773
tp27
a(F-5.1
F1.9610778443113777
tp28
a(F-5.1
F1.8113772455089823
tp29
a(F-5.1
F1.661676646706585
tp30
a(F-5.1
F1.5119760479041915
tp31
a(F-5.1
F1.3622754491017979
tp32
a(F-5.1
F1.2125748502994007
tp33
a(F-5.1
F1.0628742514970053
tp34
a(F-5.1
F0.9131736526946099
tp35
a(F-5.1
F0.7634730538922163
tp36
a(F-5.1
F0.6137724550898209
tp37
a(F-5.1
F0.46407185628742553
tp38
a(F-5.1
F0.31437125748503014
tp39
a(F-5.1
F0.16467065868263386
tp40
a(F-5.1
F0.01497005988024025
tp41
a(F-5.1
F-0.13473053892215603
tp42
a(F-5.1
F-0.28443113772454964
tp43
a(F-5.1
F-0.4341317365269459
tp44
a(F-5.1
F-0.5838323353293422
tp45
a(F-5.1
F-0.7335329341317358
tp46
a(F-5.1
F-0.8832335329341321
tp47
a(F-5.1
F-1.0329341317365275
tp48
a(F-5.1
F-1.182634730538922
tp49
a(F-5.1
F-1.3323353293413174
tp50
a(F-5.1
F-1.4820359281437119
tp51
a(F-5.1
F-1.6317365269461073
tp52
a(F-5.1
F-1.7814371257485035
tp53
a(F-5.1
F-1.9311377245508972
tp54
a(F-5.1
F-2.0808383233532934
tp55
a(F-5.1
F-2.2305389221556897
tp56
a(F-5.1
F-2.3802395209580833
tp57
a(F-5.1
F-2.5299401197604796
tp58
a(F-5.1
F-2.6796407185628732
tp59
a(F-5.1
F-2.8293413173652695
tp60
a(F-5.1
F-2.979041916167665
tp61
a(F-5.1
F-3.1287425149700594
tp62
a(F-5.1
F-3.278443113772455
tp63
a(F-5.1
F-3.428143712574851
tp64
a(F-5.1
F-3.577844311377245
tp65
a(F-5.1
F-3.727544910179641
tp66
a(F-5.1
F-3.877245508982035
tp67
a(F-5.1
F-4.026946107784431
tp68
a(F-5.1
F-4.176646706586826
tp69
a(F-5.1
F-4.326347305389221
tp70
a(F-5.1
F-4.476047904191617
tp71
a(F-5.1
F-4.625748502994012
tp72
a(F-5.1
F-4.775449101796407
tp73
a(F-5.1
F-4.925149700598803
tp74
a(F-5.1
F-5.074850299401197
tp75
a(F-4.95
F-5.224550898203592
tp76
a(F-4.8
F-5.224550898203592
tp77
a(F-4.65
F-5.224550898203592
tp78
a(F-4.5
F-5.224550898203592
tp79
a(F-4.35
F-5.224550898203592
tp80
a(F-4.2
F-5.224550898203592
tp81
a(F-4.05
F-5.074850299401197
tp82
a(F-3.9
F-4.925149700598803
tp83
a(F-3.75
F-4.775449101796407
tp84
a(F-3.6
F-4.625748502994012
tp85
a(F-3.45
F-4.476047904191617
tp86
a(F-3.3
F-4.326347305389221
tp87
a(F-3.1500000000000004
F-4.176646706586826
tp88
a(F-3.0
F-4.326347305389221
tp89
a(F-2.8499999999999996
F-4.476047904191617
tp90
a(F-2.7
F-4.625748502994012
tp91
a(F-2.55
F-4.775449101796407
tp92
a(F-2.4000000000000004
F-4.925149700598803
tp93
a(F-2.25
F-5.074850299401197
tp94
a(F-2.0999999999999996
F-5.224550898203592
tp95
a(F-1.9500000000000002
F-5.224550898203592
tp96
a(F-1.7999999999999998
F-5.224550898203592
tp97
a(F-1.6500000000000004
F-5.224550898203592
tp98
a(F-1.5
F-5.224550898203592
tp99
a(F-1.3499999999999996
F-5.224550898203592
tp100
a(F-1.2000000000000002
F-5.074850299401197
tp101
a(F-1.0499999999999998
F-4.925149700598803
tp102
a(F-0.9000000000000004
F-4.775449101796407
tp103
a(F-0.75
F-4.625748502994012
tp104
a(F-0.5999999999999996
F-4.476047904191617
tp105
a(F-0.4500000000000002
F-4.326347305389221
tp106
a(F-0.2999999999999998
F-4.176646706586826
tp107
a(F-0.15000000000000036
F-4.326347305389221
tp108
a(F0.0
F-4.476047904191617
tp109
a(F0.15000000000000036
F-4.625748502994012
tp110
a(F0.2999999999999998
F-4.775449101796407
tp111
a(F0.4500000000000002
F-4.925149700598803
tp112
a(F0.5999999999999996
F-5.074850299401197
tp113
a(F0.75
F-5.224550898203592
tp114
a(F0.9000000000000004
F-5.224550898203592
tp115
a(F1.0500000000000007
F-5.224550898203592
tp116
a(F1.1999999999999993
F-5.224550898203592
tp117
a(F1.3499999999999996
F-5.224550898203592
tp118
a(F1.5
F-5.224550898203592
tp119
a(F1.6500000000000004
F-5.074850299401197
tp120
a(F1.8000000000000007
F-4.925149700598803
tp121
a(F1.9499999999999993
F-4.775449101796407
tp122
a(F2.0999999999999996
F-4.625748502994012
tp123
a(F2.25
F-4.476047904191617
tp124
a(F2.4000000000000004
F-4.326347305389221
tp125
a(F2.5500000000000007
F-4.176646706586826
tp126
a(F2.6999999999999993
F-4.026946107784431
tp127
a(F2.8499999999999996
F-4.176646706586826
tp128
a(F3.0
F-4.326347305389221
tp129
a(F3.1500000000000004
F-4.476047904191617
tp130
a(F3.3000000000000007
F-4.625748502994012
tp131
a(F3.4499999999999993
F-4.775449101796407
tp132
a(F3.5999999999999996
F-4.925149700598803
tp133
a(F3.75
F-5.074850299401197
tp134
a(F3.9000000000000004
F-5.074850299401197
tp135
a(F4.050000000000001
F-5.074850299401197
tp136
a(F4.199999999999999
F-5.074850299401197
tp137
a(F4.35
F-5.074850299401197
tp138
a(F4.5
F-4.925149700598803
tp139
a(F4.5
F-4.775449101796407
tp140
a(F4.5
F-4.625748502994012
tp141
a(F4.5
F-4.476047904191617
tp142
a(F4.5
F-4.326347305389221
tp143
a(F4.5
F-4.176646706586826
tp144
a(F4.5
F-4.026946107784431
tp145
a(F4.5
F-3.877245508982035
tp146
a(F4.5
F-3.727544910179641
tp147
a(F4.5
F-3.577844311377245
tp148
a(F4.5
F-3.428143712574851
tp149
a(F4.5
F-3.278443113772455
tp150
a(F4.5
F-3.1287425149700594
tp151
a(F4.5
F-2.979041916167665
tp152
a(F4.5
F-2.8293413173652695
tp153
a(F4.5
F-2.6796407185628732
tp154
a(F4.5
F-2.5299401197604796
tp155
a(F4.5
F-2.3802395209580833
tp156
a(F4.5
F-2.2305389221556897
tp157
a(F4.5
F-2.0808383233532934
tp158
a(F4.5
F-1.9311377245508972
tp159
a(F4.5
F-1.7814371257485035
tp160
a(F4.5
F-1.6317365269461073
tp161
a(F4.5
F-1.4820359281437119
tp162
a(F4.5
F-1.3323353293413174
tp163
a(F4.5
F-1.182634730538922
tp164
a(F4.5
F-1.0329341317365275
tp165
a(F4.5
F-0.8832335329341321
tp166
a(F4.5
F-0.7335329341317358
tp167
a(F4.5
F-0.5838323353293422
tp168
a(F4.5
F-0.4341317365269459
tp169
a(F4.65
F-0.28443113772454964
tp170
a(F4.65
F-0.13473053892215603
tp171
a(F4.65
F0.01497005988024025
tp172
a(F4.65
F0.16467065868263386
tp173
a(F4.65
F0.31437125748503014
tp174
a(F4.65
F0.46407185628742553
tp175
a(F4.5
F0.6137724550898209
tp176
a(F4.35
F0.7634730538922163
tp177
a(F4.199999999999999
F0.9131736526946099
tp178
a(F4.050000000000001
F1.0628742514970053
tp179
a(F3.9000000000000004
F1.2125748502994007
tp180
a(F3.75
F1.3622754491017979
tp181
a(F3.5999999999999996
F1.5119760479041915
tp182
a(F3.4499999999999993
F1.661676646706585
tp183
a(F3.3000000000000007
F1.8113772455089823
tp184
a(F3.1500000000000004
F1.8113772455089823
tp185
a(F3.0
F1.8113772455089823
tp186
a(F2.8499999999999996
F1.8113772455089823
tp187
a(F2.6999999999999993
F1.8113772455089823
tp188
a(F2.5500000000000007
F1.8113772455089823
tp189
a(F2.4000000000000004
F1.8113772455089823
tp190
a(F2.25
F1.8113772455089823
tp191
a(F2.0999999999999996
F1.8113772455089823
tp192
a(F1.9499999999999993
F1.8113772455089823
tp193
a(F1.8000000000000007
F1.8113772455089823
tp194
a(F1.6500000000000004
F1.8113772455089823
tp195
a(F1.5
F1.8113772455089823
tp196
a(F1.3499999999999996
F1.8113772455089823
tp197
a(F1.1999999999999993
F1.8113772455089823
tp198
a(F1.0500000000000007
F1.8113772455089823
tp199
a(F0.9000000000000004
F1.8113772455089823
tp200
a(F0.75
F1.8113772455089823
tp201
a(F0.5999999999999996
F1.9610778443113777
tp202
a(F0.4500000000000002
F2.110778443113773
tp203
a(F0.2999999999999998
F2.2604790419161667
tp204
a(F0.2999999999999998
F2.410179640718564
tp205
a(F0.4500000000000002
F2.5598802395209574
tp206
a(F0.5999999999999996
F2.709580838323353
tp207
a(F0.75
F2.8592814371257482
tp208
a(F0.9000000000000004
F3.0089820359281454
tp209
a(F1.0500000000000007
F3.158682634730539
tp210
a(F1.1999999999999993
F3.3083832335329326
tp211
a(F1.3499999999999996
F3.45808383233533
tp212
a(F1.5
F3.607784431137725
tp213
a(F1.6500000000000004
F3.7574850299401206
tp214
a(F1.8000000000000007
F3.907185628742514
tp215
a(F1.9499999999999993
F3.907185628742514
tp216
a(F2.0999999999999996
F3.907185628742514
tp217
a(F2.25
F3.907185628742514
tp218
a(F2.4000000000000004
F3.907185628742514
tp219
a(F2.5500000000000007
F3.907185628742514
tp220
a(F2.6999999999999993
F3.907185628742514
tp221
a(F2.8499999999999996
F3.907185628742514
tp222
a(F3.0
F3.907185628742514
tp223
a(F3.1500000000000004
F3.907185628742514
tp224
a(F3.3000000000000007
F3.907185628742514
tp225
a(F3.4499999999999993
F3.907185628742514
tp226
a(F3.5999999999999996
F3.907185628742514
tp227
a(F3.75
F3.907185628742514
tp228
a(F3.9000000000000004
F3.907185628742514
tp229
a(F4.050000000000001
F3.907185628742514
tp230
a(F4.199999999999999
F3.907185628742514
tp231
a(F4.35
F3.907185628742514
tp232
a(F4.5
F4.056886227544911
tp233
a(F4.5
F4.206586826347305
tp234
a(F4.5
F4.3562874251497
tp235
a(F4.5
F4.505988023952096
tp236
a(F4.5
F4.655688622754491
tp237
a(F4.5
F4.8053892215568865
tp238
a(F4.35
F4.95508982035928
tp239
a(F4.199999999999999
F5.104790419161677
tp240
a(F4.050000000000001
F5.254491017964073
tp241
a(F3.9000000000000004
F5.404191616766466
tp242
a(F3.75
F5.553892215568862
tp243
a(F3.5999999999999996
F5.703592814371257
tp244
a(F3.4499999999999993
F5.8532934131736525
tp245
a(F3.3000000000000007
F6.002994011976048
tp246
a(F3.1500000000000004
F6.002994011976048
tp247
a(F3.0
F6.002994011976048
tp248
a(F2.8499999999999996
F6.002994011976048
tp249
a(F2.6999999999999993
F6.002994011976048
tp250
a(F2.5500000000000007
F6.002994011976048
tp251
a(F2.4000000000000004
F6.002994011976048
tp252
a(F2.25
F6.002994011976048
tp253
a(F2.0999999999999996
F6.002994011976048
tp254
a(F1.9499999999999993
F6.002994011976048
tp255
a(F1.8000000000000007
F6.002994011976048
tp256
a(F1.6500000000000004
F6.002994011976048
tp257
a(F1.5
F6.002994011976048
tp258
a(F1.3499999999999996
F6.002994011976048
tp259
a(F1.1999999999999993
F6.002994011976048
tp260
a(F1.0500000000000007
F6.002994011976048
tp261
a(F0.9000000000000004
F6.002994011976048
tp262
a(F0.75
F6.002994011976048
tp263
a(F0.5999999999999996
F6.002994011976048
tp264
a(F0.4500000000000002
F6.002994011976048
tp265
a(F0.2999999999999998
F6.002994011976048
tp266
a(F0.15000000000000036
F6.002994011976048
tp267
a(F0.0
F6.002994011976048
tp268
a(F-0.15000000000000036
F6.002994011976048
tp269
a(F-0.2999999999999998
F6.002994011976048
tp270
a(F-0.4500000000000002
F6.002994011976048
tp271
a(F-0.5999999999999996
F6.002994011976048
tp272
a(F-0.75
F6.002994011976048
tp273
a(F-0.9000000000000004
F6.002994011976048
tp274
a(F-1.0499999999999998
F6.002994011976048
tp275
a(F-1.2000000000000002
F6.002994011976048
tp276
a(F-1.3499999999999996
F6.002994011976048
tp277
a(F-1.5
F6.002994011976048
tp278
a(F-1.6500000000000004
F6.002994011976048
tp279
a(F-1.7999999999999998
F6.002994011976048
tp280
a(F-1.9500000000000002
F6.002994011976048
tp281
a(F-2.0999999999999996
F6.002994011976048
tp282
a.