(lp0
(F6.0
F-5.973053892215568
tp1
a(F6.0
F-5.823353293413174
tp2
a(F6.0
F-5.673652694610778
tp3
a(F5.85
F-5.523952095808383
tp4
a(F5.85
F-5.3742514970059885
tp5
a(F5.85
F-5.224550898203592
tp6
a(F5.85
F-5.074850299401197
tp7
a(F5.85
F-4.925149700598803
tp8
a(F5.699999999999999
F-4.775449101796407
tp9
a(F5.699999999999999
F-4.625748502994012
tp10
a(F5.699999999999999
F-4.476047904191617
tp11
a(F5.699999999999999
F-4.326347305389221
tp12
a(F5.699999999999999
F-4.176646706586826
tp13
a(F5.699999999999999
F-4.026946107784431
tp14
a(F5.699999999999999
F-3.877245508982035
tp15
a(F5.550000000000001
F-3.727544910179641
tp16
a(F5.4
F-3.577844311377245
tp17
a(F5.25
F-3.428143712574851
tp18
a(F5.25
F-3.278443113772455
tp19
a(F5.1
F-3.1287425149700594
tp20
a(F4.949999999999999
F-2.979041916167665
tp21
a(F4.949999999999999
F-2.8293413173652695
tp22
a(F4.949999999999999
F-2.6796407185628732
tp23
a(F4.949999999999999
F-2.5299401197604796
tp24
a(F4.800000000000001
F-2.3802395209580833
tp25
a(F4.800000000000001
F-2.2305389221556897
tp26
a(F4.800000000000001
F-2.0808383233532934
tp27
a(F4.800000000000001
F-1.9311377245508972
tp28
a(F4.800000000000001
F-1.7814371257485035
tp29
a(F4.65
F-1.6317365269461073
tp30
a(F4.5
F-1.4820359281437119
tp31
a(F4.35
F-1.4820359281437119
tp32
a(F4.199999999999999
F-1.4820359281437119
tp33
a(F4.050000000000001
F-1.4820359281437119
tp34
a(F3.9000000000000004
F-1.4820359281437119
tp35
a(F3.75
F-1.4820359281437119
tp36
a(F3.5999999999999996
F-1.4820359281437119
tp37
a(F3.4499999999999993
F-1.3323353293413174
tp38
a(F3.3000000000000007
F-1.182634730538922
tp39
a(F3.1500000000000004
F-1.0329341317365275
tp40
a(F3.0
F-0.8832335329341321
tp41
a(F2.8499999999999996
F-0.7335329341317358
tp42
a(F2.6999999999999993
F-0.7335329341317358
tp43
a(F2.5500000000000007
F-0.7335329341317358
tp44
a(F2.4000000000000004
F-0.7335329341317358
tp45
a(F2.25
F-0.7335329341317358
tp46
a(F2.0999999999999996
F-0.7335329341317358
tp47
a(F1.9499999999999993
F-0.7335329341317358
tp48
a(F1.8000000000000007
F-0.7335329341317358
tp49
a(F1.6500000000000004
F-0.7335329341317358
tp50
a(F1.5
F-0.7335329341317358
tp51
a(F1.3499999999999996
F-0.7335329341317358
tp52
a(F1.1999999999999993
F-0.7335329341317358
tp53
a(F1.0500000000000007
F-0.5838323353293422
tp54
a(F0.9000000000000004
F-0.4341317365269459
tp55
a(F0.75
F-0.28443113772454964
tp56
a(F0.5999999999999996
F-0.13473053892215603
tp57
a(F0.4500000000000002
F0.01497005988024025
tp58
a(F0.2999999999999998
F0.16467065868263386
tp59
a(F0.15000000000000036
F0.31437125748503014
tp60
a(F0.0
F0.46407185628742553
tp61
a(F-0.15000000000000036
F0.6137724550898209
tp62
a(F-0.2999999999999998
F0.7634730538922163
tp63
a(F-0.4500000000000002
F0.9131736526946099
tp64
a(F-0.5999999999999996
F1.0628742514970053
tp65
a(F-0.75
F1.2125748502994007
tp66
a(F-0.9000000000000004
F1.3622754491017979
tp67
a(F-1.0499999999999998
F1.5119760479041915
tp68
a(F-1.0499999999999998
F1.661676646706585
tp69
a(F-1.0499999999999998
F1.8113772455089823
tp70
a(F-1.0499999999999998
F1.9610778443113777
tp71
a(F-1.0499999999999998
F2.110778443113773
tp72
a(F-1.0499999999999998
F2.2604790419161667
tp73
a(F-0.9000000000000004
F2.410179640718564
tp74
a(F-0.75
F2.410179640718564
tp75
a(F-0.5999999999999996
F2.410179640718564
tp76
a(F-0.4500000000000002
F2.410179640718564
tp77
a(F-0.2999999999999998
F2.410179640718564
tp78
a(F-0.15000000000000036
F2.410179640718564
tp79
a(F0.0
F2.410179640718564
tp80
a(F0.15000000000000036
F2.410179640718564
tp81
a(F0.2999999999999998
F2.410179640718564
tp82
a(F0.4500000000000002
F2.410179640718564
tp83
a(F0.5999999999999996
F2.410179640718564
tp84
a(F0.75
F2.410179640718564
tp85
a(F0.9000000000000004
F2.410179640718564
tp86
a(F1.0500000000000007
F2.410179640718564
tp87
a(F1.1999999999999993
F2.410179640718564
tp88
a(F1.3499999999999996
F2.410179640718564
tp89
a(F1.5
F2.410179640718564
tp90
a(F1.6500000000000004
F2.410179640718564
tp91
a(F1.8000000000000007
F2.410179640718564
tp92
a(F1.9499999999999993
F2.410179640718564
tp93
a(F2.0999999999999996
F2.410179640718564
tp94
a(F2.25
F2.410179640718564
tp95
a(F2.4000000000000004
F2.410179640718564
tp96
a(F2.5500000000000007
F2.410179640718564
tp97
a(F2.6999999999999993
F2.410179640718564
tp98
a(F2.8499999999999996
F2.410179640718564
tp99
a(F3.0
F2.410179640718564
tp100
a(F3.1500000000000004
F2.410179640718564
tp101
a(F3.3000000000000007
F2.410179640718564
tp102
a(F3.4499999999999993
F2.410179640718564
tp103
a(F3.5999999999999996
F2.5598802395209574
tp104
a(F3.75
F2.5598802395209574
tp105
a(F3.9000000000000004
F2.709580838323353
tp106
a(F4.050000000000001
F2.8592814371257482
tp107
a(F4.199999999999999
F3.0089820359281454
tp108
a(F4.35
F3.0089820359281454
tp109
a(F4.5
F3.0089820359281454
tp110
a(F4.65
F3.158682634730539
tp111
a(F4.800000000000001
F3.3083832335329326
tp112
a(F4.800000000000001
F3.45808383233533
tp113
a(F4.800000000000001
F3.607784431137725
tp114
a(F4.800000000000001
F3.7574850299401206
tp115
a(F4.800000000000001
F3.907185628742514
tp116
a(F4.800000000000001
F4.056886227544911
tp117
a(F4.800000000000001
F4.206586826347305
tp118
a(F4.800000000000001
F4.3562874251497
tp119
a(F4.800000000000001
F4.505988023952096
tp120
a(F4.800000000000001
F4.655688622754491
tp121
a(F4.800000000000001
F4.8053892215568865
tp122
a(F4.800000000000001
F4.95508982035928
tp123
a(F4.800000000000001
F5.104790419161677
tp124
a(F4.800000000000001
F5.254491017964073
tp125
a(F4.800000000000001
F5.404191616766466
tp126
a(F4.800000000000001
F5.553892215568862
tp127
a(F4.800000000000001
F5.703592814371257
tp128
a(F4.800000000000001
F5.8532934131736525
tp129
a(F4.65
F6.002994011976048
tp130
a(F4.5
F6.002994011976048
tp131
a(F4.35
F6.002994011976048
tp132
a(F4.199999999999999
F6.002994011976048
tp133
a(F4.050000000000001
F6.002994011976048
tp134
a(F3.9000000000000004
F6.002994011976048
tp135
a(F3.75
F6.002994011976048
tp136
a(F3.5999999999999996
F6.002994011976048
tp137
a(F3.4499999999999993
F6.002994011976048
tp138
a(F3.3000000000000007
F6.002994011976048
tp139
a(F3.1500000000000004
F6.002994011976048
tp140
a(F3.0
F6.002994011976048
tp141
a(F2.8499999999999996
F6.002994011976048
tp142
a(F2.6999999999999993
F6.002994011976048
tp143
a(F2.5500000000000007
F6.002994011976048
tp144
a(F2.4000000000000004
F6.002994011976048
tp145
a(F2.25
F6.002994011976048
tp146
a(F2.0999999999999996
F6.002994011976048
tp147
a(F1.9499999999999993
F6.002994011976048
tp148
a(F1.8000000000000007
F6.002994011976048
tp149
a(F1.6500000000000004
F6.002994011976048
tp150
a(F1.5
F6.002994011976048
tp151
a(F1.3499999999999996
F6.002994011976048
tp152
a(F1.1999999999999993
F6.002994011976048
tp153
a(F1.0500000000000007
F5.8532934131736525
tp154
a(F0.9000000000000004
F5.703592814371257
tp155
a(F0.75
F5.553892215568862
tp156
a(F0.5999999999999996
F5.404191616766466
tp157
a(F0.4500000000000002
F5.254491017964073
tp158
a(F0.2999999999999998
F5.104790419161677
tp159
a(F0.15000000000000036
F5.104790419161677
tp160
a(F0.0
F5.104790419161677
tp161
a(F-0.15000000000000036
F5.104790419161677
tp162
a(F-0.2999999999999998
F5.104790419161677
tp163
a(F-0.4500000000000002
F5.104790419161677
tp164
a(F-0.5999999999999996
F5.104790419161677
tp165
a(F-0.75
F5.104790419161677
tp166
a(F-0.9000000000000004
F5.104790419161677
tp167
a(F-1.0499999999999998
F5.104790419161677
tp168
a(F-1.2000000000000002
F5.254491017964073
tp169
a(F-1.3499999999999996
F5.404191616766466
tp170
a(F-1.5
F5.553892215568862
tp171
a(F-1.6500000000000004
F5.703592814371257
tp172
a(F-1.7999999999999998
F5.8532934131736525
tp173
a(F-1.9500000000000002
F5.8532934131736525
tp174
a(F-2.0999999999999996
F5.8532934131736525
tp175
a(F-2.25
F5.8532934131736525
tp176
a(F-2.4000000000000004
F6.002994011976048
tp177
a(F-2.55
F6.002994011976048
tp178
a(F-2.7
F6.002994011976048
tp179
a(F-2.8499999999999996
F6.002994011976048
tp180
a(F-3.0
F6.002994011976048
tp181
a(F-3.1500000000000004
F6.002994011976048
tp182
a(F-3.3
F6.002994011976048
tp183
a(F-3.45
F5.8532934131736525
tp184
a(F-3.6
F5.703592814371257
tp185
a(F-3.75
F5.553892215568862
tp186
a(F-3.9
F5.404191616766466
tp187
a(F-4.05
F5.254491017964073
tp188
a(F-4.2
F5.254491017964073
tp189
a(F-4.35
F5.104790419161677
tp190
a(F-4.5
F4.95508982035928
tp191
a(F-4.65
F4.8053892215568865
tp192
a(F-4.8
F4.655688622754491
tp193
a(F-4.95
F4.505988023952096
tp194
a(F-5.1
F4.3562874251497
tp195
a(F-5.25
F4.3562874251497
tp196
a(F-5.4
F4.206586826347305
tp197
a(F-5.55
F4.206586826347305
tp198
a(F-5.7
F4.206586826347305
tp199
a(F-5.85
F4.056886227544911
tp200
a(F-5.85
F3.907185628742514
tp201
a(F-5.85
F3.7574850299401206
tp202
a(F-5.85
F3.607784431137725
tp203
a(F-5.85
F3.45808383233533
tp204
a(F-5.85
F3.3083832335329326
tp205
a(F-5.85
F3.158682634730539
tp206
a(F-5.85
F3.0089820359281454
tp207
a(F-5.85
F2.8592814371257482
tp208
a(F-5.85
F2.709580838323353
tp209
a(F-5.85
F2.5598802395209574
tp210
a(F-5.85
F2.410179640718564
tp211
a(F-5.85
F2.2604790419161667
tp212
a(F-5.85
F2.110778443113773
tp213
a(F-5.85
F1.9610778443113777
tp214
a(F-5.85
F1.8113772455089823
tp215
a(F-5.85
F1.661676646706585
tp216
a(F-5.85
F1.5119760479041915
tp217
a(F-5.7
F1.3622754491017979
tp218
a(F-5.55
F1.2125748502994007
tp219
a(F-5.4
F1.0628742514970053
tp220
a(F-5.25
F0.9131736526946099
tp221
a(F-5.1
F0.7634730538922163
tp222
a(F-4.95
F0.6137724550898209
tp223
a(F-4.8
F0.46407185628742553
tp224
a(F-4.8
F0.31437125748503014
tp225
a(F-4.8
F0.16467065868263386
tp226
a(F-4.8
F0.01497005988024025
tp227
a(F-4.8
F-0.13473053892215603
tp228
a(F-4.8
F-0.28443113772454964
tp229
a(F-4.8
F-0.4341317365269459
tp230
a(F-4.8
F-0.5838323353293422
tp231
a(F-4.65
F-0.7335329341317358
tp232
a(F-4.65
F-0.8832335329341321
tp233
a(F-4.65
F-1.0329341317365275
tp234
a(F-4.65
F-1.182634730538922
tp235
a(F-4.65
F-1.3323353293413174
tp236
a(F-4.5
F-1.4820359281437119
tp237
a(F-4.35
F-1.6317365269461073
tp238
a(F-4.2
F-1.7814371257485035
tp239
a(F-4.05
F-1.9311377245508972
tp240
a(F-3.9
F-2.0808383233532934
tp241
a(F-3.75
F-2.2305389221556897
tp242
a(F-3.6
F-2.3802395209580833
tp243
a(F-3.45
F-2.5299401197604796
tp244
a(F-3.3
F-2.6796407185628732
tp245
a(F-3.3
F-2.8293413173652695
tp246
a(F-3.3
F-2.979041916167665
tp247
a(F-3.1500000000000004
F-3.1287425149700594
tp248
a(F-3.0
F-3.278443113772455
tp249
a(F-2.8499999999999996
F-3.428143712574851
tp250
a(F-2.7
F-3.577844311377245
tp251
a(F-2.55
F-3.727544910179641
tp252
a(F-2.4000000000000004
F-3.877245508982035
tp253
a(F-2.4000000000000004
F-4.026946107784431
tp254
a(F-2.4000000000000004
F-4.176646706586826
tp255
a(F-2.4000000000000004
F-4.326347305389221
tp256
a(F-2.4000000000000004
F-4.476047904191617
tp257
a(F-2.4000000000000004
F-4.625748502994012
tp258
a(F-2.4000000000000004
F-4.775449101796407
tp259
a(F-2.55
F-4.925149700598803
tp260
a(F-2.7
F-4.925149700598803
tp261
a(F-2.8499999999999996
F-4.925149700598803
tp262
a(F-3.0
F-4.925149700598803
tp263
a(F-3.1500000000000004
F-4.925149700598803
tp264
a(F-3.3
F-4.925149700598803
tp265
a(F-3.45
F-4.925149700598803
tp266
a(F-3.6
F-4.925149700598803
tp267
a(F-3.75
F-4.925149700598803
tp268
a(F-3.9
F-4.925149700598803
tp269
a(F-4.05
F-4.925149700598803
tp270
a(F-4.2
F-4.925149700598803
tp271
a(F-4.35
F-4.925149700598803
tp272
a(F-4.5
F-4.925149700598803
tp273
a(F-4.65
F-4.925149700598803
tp274
a(F-4.8
F-5.074850299401197
tp275
a(F-4.95
F-5.074850299401197
tp276
a(F-5.1
F-5.224550898203592
tp277
a(F-5.25
F-5.3742514970059885
tp278
a(F-5.4
F-5.523952095808383
tp279
a(F-5.55
F-5.673652694610778
tp280
a(F-5.7
F-5.823353293413174
tp281
a(F-5.85
F-5.973053892215568
tp282
a(F-6.0
F-5.973053892215568
tp283
a.