(lp0
(F-6.0
F0.01497005988024025
tp1
a(F-5.7
F-0.13473053892215603
tp2
a(F-5.4
F-0.28443113772454964
tp3
a(F-5.1
F-0.4341317365269459
tp4
a(F-4.8
F-0.5838323353293422
tp5
a(F-4.8
F-0.7335329341317358
tp6
a(F-4.95
F-0.5838323353293422
tp7
a(F-4.95
F-0.4341317365269459
tp8
a(F-4.95
F-0.28443113772454964
tp9
a(F-4.8
F0.01497005988024025
tp10
a(F-4.8
F0.16467065868263386
tp11
a(F-4.95
F0.46407185628742553
tp12
a(F-4.8
F0.7634730538922163
tp13
a(F-4.8
F0.9131736526946099
tp14
a(F-4.8
F1.0628742514970053
tp15
a(F-4.8
F1.2125748502994007
tp16
a(F-4.8
F1.5119760479041915
tp17
a(F-4.8
F1.661676646706585
tp18
a(F-4.8
F1.8113772455089823
tp19
a(F-4.8
F1.9610778443113777
tp20
a(F-4.8
F2.110778443113773
tp21
a(F-4.8
F2.410179640718564
tp22
a(F-4.8
F2.5598802395209574
tp23
a(F-4.8
F2.709580838323353
tp24
a(F-4.8
F3.0089820359281454
tp25
a(F-4.8
F3.158682634730539
tp26
a(F-4.8
F3.3083832335329326
tp27
a(F-4.8
F3.45808383233533
tp28
a(F-4.95
F3.607784431137725
tp29
a(F-4.8
F3.907185628742514
tp30
a(F-4.8
F4.056886227544911
tp31
a(F-4.8
F4.206586826347305
tp32
a(F-4.8
F4.3562874251497
tp33
a(F-4.8
F4.655688622754491
tp34
a(F-4.5
F4.8053892215568865
tp35
a(F-4.2
F4.8053892215568865
tp36
a(F-3.9
F4.8053892215568865
tp37
a(F-3.75
F4.505988023952096
tp38
a(F-3.6
F4.206586826347305
tp39
a(F-3.45
F3.907185628742514
tp40
a(F-3.3
F3.607784431137725
tp41
a(F-3.1500000000000004
F3.3083832335329326
tp42
a(F-3.0
F3.0089820359281454
tp43
a(F-2.8499999999999996
F2.709580838323353
tp44
a(F-2.55
F2.5598802395209574
tp45
a(F-2.25
F2.410179640718564
tp46
a(F-1.9500000000000002
F2.410179640718564
tp47
a(F-1.6500000000000004
F2.410179640718564
tp48
a(F-1.3499999999999996
F2.410179640718564
tp49
a(F-1.0499999999999998
F2.410179640718564
tp50
a(F-0.75
F2.410179640718564
tp51
a(F-0.4500000000000002
F2.410179640718564
tp52
a(F-0.15000000000000036
F2.2604790419161667
tp53
a(F0.0
F1.9610778443113777
tp54
a(F0.15000000000000036
F1.661676646706585
tp55
a(F0.2999999999999998
F1.3622754491017979
tp56
a(F0.4500000000000002
F1.0628742514970053
tp57
a(F0.5999999999999996
F0.7634730538922163
tp58
a(F0.75
F0.46407185628742553
tp59
a(F0.9000000000000004
F0.16467065868263386
tp60
a(F1.0500000000000007
F-0.13473053892215603
tp61
a(F1.1999999999999993
F-0.4341317365269459
tp62
a(F1.5
F-0.4341317365269459
tp63
a(F1.8000000000000007
F-0.4341317365269459
tp64
a(F1.9499999999999993
F-0.4341317365269459
tp65
a(F1.9499999999999993
F-0.28443113772454964
tp66
a(F1.6500000000000004
F-0.4341317365269459
tp67
a(F1.3499999999999996
F-0.28443113772454964
tp68
a(F1.0500000000000007
F-0.4341317365269459
tp69
a(F1.0500000000000007
F-0.28443113772454964
tp70
a(F0.75
F-0.4341317365269459
tp71
a(F0.5999999999999996
F-0.4341317365269459
tp72
a(F0.4500000000000002
F-0.4341317365269459
tp73
a(F0.2999999999999998
F-0.4341317365269459
tp74
a(F0.0
F-0.4341317365269459
tp75
a(F-0.2999999999999998
F-0.28443113772454964
tp76
a(F-0.4500000000000002
F-0.4341317365269459
tp77
a(F-0.5999999999999996
F-0.28443113772454964
tp78
a(F-0.75
F-0.4341317365269459
tp79
a(F-1.0499999999999998
F-0.4341317365269459
tp80
a(F-1.0499999999999998
F-0.28443113772454964
tp81
a(F-1.2000000000000002
F-0.4341317365269459
tp82
a(F-1.3499999999999996
F-0.7335329341317358
tp83
a(F-1.3499999999999996
F-1.0329341317365275
tp84
a(F-1.3499999999999996
F-1.3323353293413174
tp85
a(F-1.0499999999999998
F-1.4820359281437119
tp86
a(F-0.75
F-1.6317365269461073
tp87
a(F-0.4500000000000002
F-1.7814371257485035
tp88
a(F-0.15000000000000036
F-1.9311377245508972
tp89
a(F0.15000000000000036
F-2.0808383233532934
tp90
a(F0.4500000000000002
F-2.2305389221556897
tp91
a(F0.75
F-2.3802395209580833
tp92
a(F1.0500000000000007
F-2.5299401197604796
tp93
a(F1.3499999999999996
F-2.6796407185628732
tp94
a(F1.6500000000000004
F-2.8293413173652695
tp95
a(F1.9499999999999993
F-2.979041916167665
tp96
a(F2.25
F-3.1287425149700594
tp97
a(F2.5500000000000007
F-3.278443113772455
tp98
a(F2.8499999999999996
F-3.428143712574851
tp99
a(F3.1500000000000004
F-3.577844311377245
tp100
a(F3.4499999999999993
F-3.577844311377245
tp101
a(F3.75
F-3.577844311377245
tp102
a(F4.050000000000001
F-3.727544910179641
tp103
a(F4.199999999999999
F-4.026946107784431
tp104
a(F4.35
F-4.326347305389221
tp105
a(F4.65
F-4.476047904191617
tp106
a(F4.800000000000001
F-4.775449101796407
tp107
a(F5.1
F-4.925149700598803
tp108
a(F5.25
F-5.224550898203592
tp109
a(F5.550000000000001
F-5.3742514970059885
tp110
a(F5.699999999999999
F-5.673652694610778
tp111
a(F6.0
F-5.823353293413174
tp112
a(F6.0
F-5.973053892215568
tp113
a.